target datalayout = "e-m:e-p270:32:32-p271:32:32-p272:64:64-i64:64-i128:128-f80:128-n8:16:32:64-S128"
target triple = "x86_64-pc-linux-gnu"

%struct.WMV2DSPContext = type { ptr, ptr, [8 x ptr], i32 }

; Function Attrs: cold nounwind optsize uwtable
define void @ff_wmv2dsp_init(ptr noundef %0) #0 {
  %2 = alloca ptr, align 8
  store ptr %0, ptr %2, align 8, !tbaa !4
  %3 = load ptr, ptr %2, align 8, !tbaa !4
  %4 = getelementptr inbounds nuw %struct.WMV2DSPContext, ptr %3, i32 0, i32 0
  store ptr @wmv2_idct_add_c, ptr %4, align 8, !tbaa !9
  %5 = load ptr, ptr %2, align 8, !tbaa !4
  %6 = getelementptr inbounds nuw %struct.WMV2DSPContext, ptr %5, i32 0, i32 1
  store ptr @wmv2_idct_put_c, ptr %6, align 8, !tbaa !12
  %7 = load ptr, ptr %2, align 8, !tbaa !4
  %8 = getelementptr inbounds nuw %struct.WMV2DSPContext, ptr %7, i32 0, i32 3
  store i32 0, ptr %8, align 8, !tbaa !13
  %9 = load ptr, ptr %2, align 8, !tbaa !4
  %10 = getelementptr inbounds nuw %struct.WMV2DSPContext, ptr %9, i32 0, i32 2
  %11 = getelementptr inbounds [8 x ptr], ptr %10, i64 0, i64 0
  store ptr @ff_put_pixels8x8_c, ptr %11, align 8, !tbaa !14
  %12 = load ptr, ptr %2, align 8, !tbaa !4
  %13 = getelementptr inbounds nuw %struct.WMV2DSPContext, ptr %12, i32 0, i32 2
  %14 = getelementptr inbounds [8 x ptr], ptr %13, i64 0, i64 1
  store ptr @put_mspel8_mc10_c, ptr %14, align 8, !tbaa !14
  %15 = load ptr, ptr %2, align 8, !tbaa !4
  %16 = getelementptr inbounds nuw %struct.WMV2DSPContext, ptr %15, i32 0, i32 2
  %17 = getelementptr inbounds [8 x ptr], ptr %16, i64 0, i64 2
  store ptr @put_mspel8_mc20_c, ptr %17, align 8, !tbaa !14
  %18 = load ptr, ptr %2, align 8, !tbaa !4
  %19 = getelementptr inbounds nuw %struct.WMV2DSPContext, ptr %18, i32 0, i32 2
  %20 = getelementptr inbounds [8 x ptr], ptr %19, i64 0, i64 3
  store ptr @put_mspel8_mc30_c, ptr %20, align 8, !tbaa !14
  %21 = load ptr, ptr %2, align 8, !tbaa !4
  %22 = getelementptr inbounds nuw %struct.WMV2DSPContext, ptr %21, i32 0, i32 2
  %23 = getelementptr inbounds [8 x ptr], ptr %22, i64 0, i64 4
  store ptr @put_mspel8_mc02_c, ptr %23, align 8, !tbaa !14
  %24 = load ptr, ptr %2, align 8, !tbaa !4
  %25 = getelementptr inbounds nuw %struct.WMV2DSPContext, ptr %24, i32 0, i32 2
  %26 = getelementptr inbounds [8 x ptr], ptr %25, i64 0, i64 5
  store ptr @put_mspel8_mc12_c, ptr %26, align 8, !tbaa !14
  %27 = load ptr, ptr %2, align 8, !tbaa !4
  %28 = getelementptr inbounds nuw %struct.WMV2DSPContext, ptr %27, i32 0, i32 2
  %29 = getelementptr inbounds [8 x ptr], ptr %28, i64 0, i64 6
  store ptr @put_mspel8_mc22_c, ptr %29, align 8, !tbaa !14
  %30 = load ptr, ptr %2, align 8, !tbaa !4
  %31 = getelementptr inbounds nuw %struct.WMV2DSPContext, ptr %30, i32 0, i32 2
  %32 = getelementptr inbounds [8 x ptr], ptr %31, i64 0, i64 7
  store ptr @put_mspel8_mc32_c, ptr %32, align 8, !tbaa !14
  ret void
}