; Function Attrs: cold mustprogress nofree norecurse nosync nounwind optsize willreturn memory(argmem: write) uwtable
define void @ff_wmv2dsp_init(ptr noundef writeonly captures(none) initializes((0, 84)) %0) local_unnamed_addr #0 {
  store ptr @wmv2_idct_add_c, ptr %0, align 8, !tbaa !4
  %2 = getelementptr inbounds nuw i8, ptr %0, i64 8
  store ptr @wmv2_idct_put_c, ptr %2, align 8, !tbaa !10
  %3 = getelementptr inbounds nuw i8, ptr %0, i64 80
  store i32 0, ptr %3, align 8, !tbaa !11
  %4 = getelementptr inbounds nuw i8, ptr %0, i64 16
  store ptr @ff_put_pixels8x8_c, ptr %4, align 8, !tbaa !12
  %5 = getelementptr inbounds nuw i8, ptr %0, i64 24
  store ptr @put_mspel8_mc10_c, ptr %5, align 8, !tbaa !12
  %6 = getelementptr inbounds nuw i8, ptr %0, i64 32
  store ptr @put_mspel8_mc20_c, ptr %6, align 8, !tbaa !12
  %7 = getelementptr inbounds nuw i8, ptr %0, i64 40
  store ptr @put_mspel8_mc30_c, ptr %7, align 8, !tbaa !12
  %8 = getelementptr inbounds nuw i8, ptr %0, i64 48
  store ptr @put_mspel8_mc02_c, ptr %8, align 8, !tbaa !12
  %9 = getelementptr inbounds nuw i8, ptr %0, i64 56
  store ptr @put_mspel8_mc12_c, ptr %9, align 8, !tbaa !12
  %10 = getelementptr inbounds nuw i8, ptr %0, i64 64
  store ptr @put_mspel8_mc22_c, ptr %10, align 8, !tbaa !12
  %11 = getelementptr inbounds nuw i8, ptr %0, i64 72
  store ptr @put_mspel8_mc32_c, ptr %11, align 8, !tbaa !12
  ret void
}